; Function Attrs: mustprogress nofree nounwind willreturn memory(write, argmem: none, inaccessiblemem: readwrite) uwtable
define dso_local noalias noundef ptr @func_type(ptr noundef %return_ty) local_unnamed_addr #5 {
entry:
  %call.i = tail call noalias dereferenceable_or_null(120) ptr @calloc(i64 noundef 1, i64 noundef 120) #11
  store i32 11, ptr %call.i, align 8
  %size2.i = getelementptr inbounds %struct.Type, ptr %call.i, i64 0, i32 1
  store i32 1, ptr %size2.i, align 4
  %align3.i = getelementptr inbounds %struct.Type, ptr %call.i, i64 0, i32 2
  store i32 1, ptr %align3.i, align 8
  %return_ty1 = getelementptr inbounds %struct.Type, ptr %call.i, i64 0, i32 15
  store ptr %return_ty, ptr %return_ty1, align 8
  ret ptr %call.i
}